Certificate:
    Data:
        Version: 3 (0x2)
        Serial Number: 2 (0x2)
    Signature Algorithm: sha256WithRSAEncryption
        Issuer: C=AU, ST=Sydney, L=Sydney, O=GGOpenstack, CN=osp.home.gatwards.org
        Validity
            Not Before: Feb  9 21:48:40 2021 GMT
            Not After : Nov  6 21:48:40 2023 GMT
        Subject: C=AU, ST=Sydney, O=GGOpenstack, CN=osp.home.gatwards.org
        Subject Public Key Info:
            Public Key Algorithm: rsaEncryption
                Public-Key: (2048 bit)
                Modulus:
                    00:da:46:04:0c:8e:67:b9:1c:f3:96:11:ac:9b:14:
                    06:f1:b3:cf:5c:b8:e3:50:d2:7d:f2:3b:e5:5b:f5:
                    7b:f3:80:13:7d:ef:1f:7e:2a:02:31:ce:bd:cd:d1:
                    49:6e:aa:94:26:c2:50:00:0f:06:fa:80:6f:4c:f7:
                    7c:b8:e7:cc:46:e9:68:7d:47:62:41:8b:ee:bb:a2:
                    bb:20:a2:d6:8a:92:5c:77:80:40:66:15:9b:f8:fe:
                    9d:d0:3c:ba:83:f2:4e:ed:5d:1a:b7:2e:3c:51:9c:
                    c0:c9:16:3b:c9:20:4e:48:f1:4f:67:0a:61:b3:ec:
                    ec:06:05:da:f3:e0:bc:76:d3:cb:c5:a2:69:f8:20:
                    2f:8b:e7:4c:fd:a6:af:ea:f2:e4:48:bc:84:7b:85:
                    1a:88:c6:1f:c3:33:57:0b:d2:2d:42:f1:52:9b:10:
                    1b:7d:7e:bc:4a:5f:19:33:6f:c1:b4:46:62:d7:b3:
                    92:32:05:dd:08:5b:92:63:d6:22:a9:6c:8e:71:58:
                    91:ca:ff:89:93:0a:48:3a:8a:de:ea:4b:ea:a8:9d:
                    03:82:42:92:bd:bf:07:2c:26:65:44:a2:38:45:8a:
                    d6:aa:77:95:6a:3e:6f:1c:c4:45:89:e7:d7:4a:ae:
                    d9:12:83:3a:2b:5d:c0:58:a2:f6:8d:58:b8:a0:fa:
                    d1:81
                Exponent: 65537 (0x10001)
        X509v3 extensions:
            X509v3 Basic Constraints: 
                CA:FALSE
            Netscape Comment: 
                OpenSSL Generated Certificate
            X509v3 Subject Key Identifier: 
                DA:D5:DA:D7:AE:88:C3:06:76:9E:B9:C2:AD:C6:88:C4:03:82:E6:67
            X509v3 Authority Key Identifier: 
                keyid:69:36:0B:52:CB:B7:84:6E:CD:D1:65:81:33:77:64:9F:F1:DF:B3:2F

    Signature Algorithm: sha256WithRSAEncryption
         7d:71:98:15:b0:1b:12:24:5c:ba:a1:86:9f:f7:07:4a:e7:5e:
         82:a2:be:0d:18:f2:9c:37:5d:4e:b9:d1:a3:8b:ae:50:54:de:
         53:84:09:b9:e2:64:8b:9d:9c:e4:41:e5:4f:a8:80:b0:a7:d8:
         75:54:44:26:97:a1:fd:4c:59:df:28:d7:20:fc:75:ca:60:6c:
         09:0e:5f:9c:5b:7a:c7:e9:87:07:d5:f3:ff:9c:55:a8:8e:8d:
         c4:e4:c0:25:36:dc:66:52:9e:1f:f1:e1:d5:8f:50:b4:ae:c7:
         68:69:a5:7e:3e:0a:6e:d6:e0:13:29:3d:68:6a:dd:1a:1b:6c:
         5d:aa:eb:b5:24:b0:27:64:7d:57:95:46:f9:85:a0:0b:37:d3:
         d7:32:21:5c:51:ae:df:1c:f2:4d:a4:75:a0:9b:79:cf:6d:66:
         9a:d8:bd:84:cb:54:d4:0a:14:88:9c:e1:e6:43:b3:3e:8f:e3:
         76:fe:d3:78:db:13:30:ca:af:66:fe:b9:ef:d6:ab:64:99:b7:
         2c:c8:c0:d4:9e:70:22:33:a0:4c:b5:2b:0c:c2:cb:dd:7d:d5:
         f9:de:90:3e:cb:2e:c4:b1:31:fa:de:d6:6f:82:80:7b:cc:0c:
         b1:3e:13:0e:50:7b:e4:a7:46:6b:74:18:44:21:32:8c:c8:ee:
         de:d2:f6:14
-----BEGIN CERTIFICATE-----
MIIDrzCCApegAwIBAgIBAjANBgkqhkiG9w0BAQsFADBlMQswCQYDVQQGEwJBVTEP
MA0GA1UECAwGU3lkbmV5MQ8wDQYDVQQHDAZTeWRuZXkxFDASBgNVBAoMC0dHT3Bl
bnN0YWNrMR4wHAYDVQQDDBVvc3AuaG9tZS5nYXR3YXJkcy5vcmcwHhcNMjEwMjA5
MjE0ODQwWhcNMjMxMTA2MjE0ODQwWjBUMQswCQYDVQQGEwJBVTEPMA0GA1UECAwG
U3lkbmV5MRQwEgYDVQQKDAtHR09wZW5zdGFjazEeMBwGA1UEAwwVb3NwLmhvbWUu
Z2F0d2FyZHMub3JnMIIBIjANBgkqhkiG9w0BAQEFAAOCAQ8AMIIBCgKCAQEA2kYE
DI5nuRzzlhGsmxQG8bPPXLjjUNJ98jvlW/V784ATfe8ffioCMc69zdFJbqqUJsJQ
AA8G+oBvTPd8uOfMRulofUdiQYvuu6K7IKLWipJcd4BAZhWb+P6d0Dy6g/JO7V0a
ty48UZzAyRY7ySBOSPFPZwphs+zsBgXa8+C8dtPLxaJp+CAvi+dM/aav6vLkSLyE
e4UaiMYfwzNXC9ItQvFSmxAbfX68Sl8ZM2/BtEZi17OSMgXdCFuSY9YiqWyOcViR
yv+JkwpIOore6kvqqJ0DgkKSvb8HLCZlRKI4RYrWqneVaj5vHMRFiefXSq7ZEoM6
K13AWKL2jVi4oPrRgQIDAQABo3sweTAJBgNVHRMEAjAAMCwGCWCGSAGG+EIBDQQf
Fh1PcGVuU1NMIEdlbmVyYXRlZCBDZXJ0aWZpY2F0ZTAdBgNVHQ4EFgQU2tXa166I
wwZ2nrnCrcaIxAOC5mcwHwYDVR0jBBgwFoAUaTYLUsu3hG7N0WWBM3dkn/Hfsy8w
DQYJKoZIhvcNAQELBQADggEBAH1xmBWwGxIkXLqhhp/3B0rnXoKivg0Y8pw3XU65
0aOLrlBU3lOECbniZIudnORB5U+ogLCn2HVURCaXof1MWd8o1yD8dcpgbAkOX5xb
esfphwfV8/+cVaiOjcTkwCU23GZSnh/x4dWPULSux2hppX4+Cm7W4BMpPWhq3Rob
bF2q67UksCdkfVeVRvmFoAs309cyIVxRrt8c8k2kdaCbec9tZprYvYTLVNQKFIic
4eZDsz6P43b+03jbEzDKr2b+ue/Wq2SZtyzIwNSecCIzoEy1KwzCy9191fnekD7L
LsSxMfre1m+CgHvMDLE+Ew5Qe+SnRmt0GEQhMozI7t7S9hQ=
-----END CERTIFICATE-----
-----BEGIN PRIVATE KEY-----
MIIEvwIBADANBgkqhkiG9w0BAQEFAASCBKkwggSlAgEAAoIBAQDaRgQMjme5HPOW
EaybFAbxs89cuONQ0n3yO+Vb9XvzgBN97x9+KgIxzr3N0UluqpQmwlAADwb6gG9M
93y458xG6Wh9R2JBi+67orsgotaKklx3gEBmFZv4/p3QPLqD8k7tXRq3LjxRnMDJ
FjvJIE5I8U9nCmGz7OwGBdrz4Lx208vFomn4IC+L50z9pq/q8uRIvIR7hRqIxh/D
M1cL0i1C8VKbEBt9frxKXxkzb8G0RmLXs5IyBd0IW5Jj1iKpbI5xWJHK/4mTCkg6
it7qS+qonQOCQpK9vwcsJmVEojhFitaqd5VqPm8cxEWJ59dKrtkSgzorXcBYovaN
WLig+tGBAgMBAAECggEBANnLPSUOPx7tbXyTXChNPnSUV1eMwH0X20YGT+CHPUwF
wu1I2aK45gGu6aLhrqT3HebiwpKca/kuiGBDHjceS62CHpnKzZbburWNNazl7q7M
RemTli6GZ2B3Jx7uSal48RpVaV/YiaVhhNfhEHyqeJK9/d2x9TVkNUn5M7VezI6/
BKilqi9JE36qO3sjwBGI8j8apav0jM858HeIxUi2vxaVfo032+BGTqhHj0BAkQkX
jL4a90zS3VTwsNUawvE1/YJajWtFyfx/mtsvCnn6v5JmskqwW8C5W5rNZeawWzhx
xcxGGbAUxb8iY6XtLIccX9STaNrXnvaYFZXiHhSW8MUCgYEA9UFwjnzwgSh0wbCz
V4L61fy7jV2LiwPYpPEghvCTFRYZehPgewEMBQ5MmZH08elZ7M+Tw/1NakinNTZo
cJcqjsXnnye+s8RL7Ik2wcyTzcOMQW7gFytONiCNx4dqy1ipopc6fqYo3apkUnzm
/sSPrPMO6kkliXFZWVHFHQYYGn8CgYEA49X4NnMM4CqDA1qjwr4VJMOA0sMQjpmj
TLDVAcOADKgUGg0TAWdzzekm9ogVzxXevYhowYzchL3zXJhOzcTBxlMQhQAvieMM
G8TVHINcqkLh5TSfZihleGDoRIdMDIk8jNvJNxPzuLZm0BoqYESptJC4V3QyR8iA
XqOlCWB/E/8CgYEAwEL8qbboE1hTr0OGVCQp33aw0LF0oxXwz9z3UtFlfDJG5pyO
bd70PUJoajsxejMke7B+djYsahVqfxyX4yueAS7D1NCjfulzW4p1kpd9huC1ItZ4
dbFNLsF2Y+SUo7RtxzgmcwJvJtZcrw2bSD1vJHWmS6Pr+UMSeCLSE16jpqECgYA2
fkf25f+vYhuh4r0GaCZwe55FSsicAt1PC4B3AoaPAGiGbpgcHt1Q47IhBx2IQWfc
F1NO790SlsgtXnSCvMvIHrf1x7yXE0ojHioGvticFJEpHDP/4Cuc5jjHo0CqQuzL
mAoBdXE2vdHLdmaqTeH1QSQGLtGT373sZOGlY4IhiwKBgQCWvefZEpjduY3MEFaC
yxfNT/04nGht+WFoOq64R1fzHe3pd7Os0l2lc3YbyUe+AflCT8Z4EQJ4kqw9zSa2
JHq9DXkZ3yxW65vTKa2oYwdubPv0rfcgy4percYAi+hhJ0tqyRO+Jv1dScpD/fQJ
EK/oyAN8k1U2mZjGKFnsIBVczw==
-----END PRIVATE KEY-----
